target datalayout = "e-m:e-p270:32:32-p271:32:32-p272:64:64-i64:64-i128:128-f80:128-n8:16:32:64-S128"
target triple = "x86_64-pc-linux-gnu"

%struct.HashJoinState = type { %struct.JoinState, ptr, ptr, ptr, i32, i32, i32, ptr, ptr, ptr, ptr, ptr, ptr, i32, i8, i8 }
%struct.JoinState = type { %struct.PlanState, i32, i8, ptr }
%struct.PlanState = type { i32, ptr, ptr, ptr, ptr, ptr, ptr, ptr, ptr, ptr, ptr, ptr, ptr, ptr, ptr, ptr, ptr, ptr, i8, ptr, ptr, ptr, ptr, ptr, i8, i8, i8, i8, i8, i8, i8, i8 }
%struct.Plan = type { i32, i32, double, double, double, i32, i8, i8, i8, i32, ptr, ptr, ptr, ptr, ptr, ptr, ptr }
%struct.HashState = type { %struct.PlanState, ptr, ptr, ptr, i32, ptr, ptr, ptr }
%struct.ParallelContext = type { %struct.dlist_node, i32, i32, i32, i32, ptr, ptr, ptr, %struct.shm_toc_estimator, ptr, ptr, ptr, ptr, i32, ptr }
%struct.dlist_node = type { ptr, ptr }
%struct.shm_toc_estimator = type { i64, i64 }
%struct.ParallelHashJoinState = type { i64, i64, i32, i32, i32, i32, i64, i32, i64, i64, %struct.LWLock, %struct.Barrier, %struct.Barrier, %struct.Barrier, %struct.pg_atomic_uint32, %struct.SharedFileSet }
%struct.LWLock = type { i16, %struct.pg_atomic_uint32, %struct.proclist_head }
%struct.proclist_head = type { i32, i32 }
%struct.Barrier = type { i8, i32, i32, i32, i32, i8, %struct.ConditionVariable }
%struct.ConditionVariable = type { i8, %struct.proclist_head }
%struct.pg_atomic_uint32 = type { i32 }
%struct.SharedFileSet = type { %struct.FileSet, i8, i32 }
%struct.FileSet = type { i32, i32, i32, [8 x i32] }

; Function Attrs: inlinehint nounwind uwtable
define internal void @pg_atomic_init_u32_impl(ptr noundef %0, i32 noundef %1) #2 {
  %3 = alloca ptr, align 8
  %4 = alloca i32, align 4
  store ptr %0, ptr %3, align 8
  store i32 %1, ptr %4, align 4
  %5 = load i32, ptr %4, align 4
  %6 = load ptr, ptr %3, align 8
  %7 = getelementptr inbounds nuw %struct.pg_atomic_uint32, ptr %6, i32 0, i32 0
  store volatile i32 %5, ptr %7, align 4
  ret void
}

; Function Attrs: inlinehint nounwind uwtable
define internal void @pg_atomic_init_u32(ptr noundef %0, i32 noundef %1) #2 {
  %3 = alloca ptr, align 8
  %4 = alloca i32, align 4
  store ptr %0, ptr %3, align 8
  store i32 %1, ptr %4, align 4
  %5 = load ptr, ptr %3, align 8
  %6 = load i32, ptr %4, align 4
  call void @pg_atomic_init_u32_impl(ptr noundef %5, i32 noundef %6)
  ret void
}

; Function Attrs: nounwind uwtable
define dso_local void @ExecHashJoinInitializeDSM(ptr noundef %0, ptr noundef %1) #0 {
  %3 = alloca ptr, align 8
  %4 = alloca ptr, align 8
  %5 = alloca i32, align 4
  %6 = alloca ptr, align 8
  %7 = alloca ptr, align 8
  %8 = alloca i32, align 4
  store ptr %0, ptr %3, align 8
  store ptr %1, ptr %4, align 8
  call void @llvm.lifetime.start.p0(i64 4, ptr %5) #8
  %9 = load ptr, ptr %3, align 8
  %10 = getelementptr inbounds nuw %struct.HashJoinState, ptr %9, i32 0, i32 0
  %11 = getelementptr inbounds nuw %struct.JoinState, ptr %10, i32 0, i32 0
  %12 = getelementptr inbounds nuw %struct.PlanState, ptr %11, i32 0, i32 1
  %13 = load ptr, ptr %12, align 8
  %14 = getelementptr inbounds nuw %struct.Plan, ptr %13, i32 0, i32 9
  %15 = load i32, ptr %14, align 8
  store i32 %15, ptr %5, align 4
  call void @llvm.lifetime.start.p0(i64 8, ptr %6) #8
  call void @llvm.lifetime.start.p0(i64 8, ptr %7) #8
  %16 = load ptr, ptr %4, align 8
  %17 = getelementptr inbounds nuw %struct.ParallelContext, ptr %16, i32 0, i32 9
  %18 = load ptr, ptr %17, align 8
  %19 = icmp eq ptr %18, null
  br i1 %19, label %20, label %21

20:                                               ; preds = %2
  store i32 1, ptr %8, align 4
  br label %78

21:                                               ; preds = %2
  %22 = load ptr, ptr %3, align 8
  %23 = getelementptr inbounds nuw %struct.HashJoinState, ptr %22, i32 0, i32 0
  %24 = getelementptr inbounds nuw %struct.JoinState, ptr %23, i32 0, i32 0
  call void @ExecSetExecProcNode(ptr noundef %24, ptr noundef @ExecParallelHashJoin)
  %25 = load ptr, ptr %4, align 8
  %26 = getelementptr inbounds nuw %struct.ParallelContext, ptr %25, i32 0, i32 11
  %27 = load ptr, ptr %26, align 8
  %28 = call ptr @shm_toc_allocate(ptr noundef %27, i64 noundef 248)
  store ptr %28, ptr %7, align 8
  %29 = load ptr, ptr %4, align 8
  %30 = getelementptr inbounds nuw %struct.ParallelContext, ptr %29, i32 0, i32 11
  %31 = load ptr, ptr %30, align 8
  %32 = load i32, ptr %5, align 4
  %33 = sext i32 %32 to i64
  %34 = load ptr, ptr %7, align 8
  call void @shm_toc_insert(ptr noundef %31, i64 noundef %33, ptr noundef %34)
  %35 = load ptr, ptr %7, align 8
  %36 = getelementptr inbounds nuw %struct.ParallelHashJoinState, ptr %35, i32 0, i32 2
  store i32 0, ptr %36, align 8
  %37 = load ptr, ptr %7, align 8
  %38 = getelementptr inbounds nuw %struct.ParallelHashJoinState, ptr %37, i32 0, i32 8
  store i64 0, ptr %38, align 8
  %39 = load ptr, ptr %7, align 8
  %40 = getelementptr inbounds nuw %struct.ParallelHashJoinState, ptr %39, i32 0, i32 0
  store i64 0, ptr %40, align 8
  %41 = load ptr, ptr %7, align 8
  %42 = getelementptr inbounds nuw %struct.ParallelHashJoinState, ptr %41, i32 0, i32 1
  store i64 0, ptr %42, align 8
  %43 = load ptr, ptr %7, align 8
  %44 = getelementptr inbounds nuw %struct.ParallelHashJoinState, ptr %43, i32 0, i32 4
  store i32 0, ptr %44, align 8
  %45 = load ptr, ptr %7, align 8
  %46 = getelementptr inbounds nuw %struct.ParallelHashJoinState, ptr %45, i32 0, i32 5
  store i32 0, ptr %46, align 4
  %47 = load ptr, ptr %7, align 8
  %48 = getelementptr inbounds nuw %struct.ParallelHashJoinState, ptr %47, i32 0, i32 6
  store i64 0, ptr %48, align 8
  %49 = load ptr, ptr %7, align 8
  %50 = getelementptr inbounds nuw %struct.ParallelHashJoinState, ptr %49, i32 0, i32 14
  call void @pg_atomic_init_u32(ptr noundef %50, i32 noundef 0)
  %51 = load ptr, ptr %4, align 8
  %52 = getelementptr inbounds nuw %struct.ParallelContext, ptr %51, i32 0, i32 2
  %53 = load i32, ptr %52, align 4
  %54 = add i32 %53, 1
  %55 = load ptr, ptr %7, align 8
  %56 = getelementptr inbounds nuw %struct.ParallelHashJoinState, ptr %55, i32 0, i32 7
  store i32 %54, ptr %56, align 8
  %57 = load ptr, ptr %7, align 8
  %58 = getelementptr inbounds nuw %struct.ParallelHashJoinState, ptr %57, i32 0, i32 9
  store i64 0, ptr %58, align 8
  %59 = load ptr, ptr %7, align 8
  %60 = getelementptr inbounds nuw %struct.ParallelHashJoinState, ptr %59, i32 0, i32 10
  call void @LWLockInitialize(ptr noundef %60, i32 noundef 68)
  %61 = load ptr, ptr %7, align 8
  %62 = getelementptr inbounds nuw %struct.ParallelHashJoinState, ptr %61, i32 0, i32 11
  call void @BarrierInit(ptr noundef %62, i32 noundef 0)
  %63 = load ptr, ptr %7, align 8
  %64 = getelementptr inbounds nuw %struct.ParallelHashJoinState, ptr %63, i32 0, i32 12
  call void @BarrierInit(ptr noundef %64, i32 noundef 0)
  %65 = load ptr, ptr %7, align 8
  %66 = getelementptr inbounds nuw %struct.ParallelHashJoinState, ptr %65, i32 0, i32 13
  call void @BarrierInit(ptr noundef %66, i32 noundef 0)
  %67 = load ptr, ptr %7, align 8
  %68 = getelementptr inbounds nuw %struct.ParallelHashJoinState, ptr %67, i32 0, i32 15
  %69 = load ptr, ptr %4, align 8
  %70 = getelementptr inbounds nuw %struct.ParallelContext, ptr %69, i32 0, i32 9
  %71 = load ptr, ptr %70, align 8
  call void @SharedFileSetInit(ptr noundef %68, ptr noundef %71)
  %72 = load ptr, ptr %3, align 8
  %73 = getelementptr inbounds nuw %struct.PlanState, ptr %72, i32 0, i32 10
  %74 = load ptr, ptr %73, align 8
  store ptr %74, ptr %6, align 8
  %75 = load ptr, ptr %7, align 8
  %76 = load ptr, ptr %6, align 8
  %77 = getelementptr inbounds nuw %struct.HashState, ptr %76, i32 0, i32 7
  store ptr %75, ptr %77, align 8
  store i32 0, ptr %8, align 4
  br label %78

78:                                               ; preds = %21, %20
  call void @llvm.lifetime.end.p0(i64 8, ptr %7) #8
  call void @llvm.lifetime.end.p0(i64 8, ptr %6) #8
  call void @llvm.lifetime.end.p0(i64 4, ptr %5) #8
  %79 = load i32, ptr %8, align 4
  switch i32 %79, label %81 [
    i32 0, label %80
    i32 1, label %80
  ]

80:                                               ; preds = %78, %78
  ret void

81:                                               ; preds = %78
  unreachable
}