; Function Attrs: nounwind uwtable
define dso_local void @ExecHashJoinInitializeDSM(ptr noundef %0, ptr noundef readonly captures(none) %1) local_unnamed_addr #0 {
  %3 = getelementptr inbounds nuw i8, ptr %1, i64 72
  %4 = load ptr, ptr %3, align 8
  %5 = icmp eq ptr %4, null
  br i1 %5, label %33, label %6

6:                                                ; preds = %2
  %7 = getelementptr inbounds nuw i8, ptr %0, i64 8
  %8 = load ptr, ptr %7, align 8
  %9 = getelementptr inbounds nuw i8, ptr %8, i64 40
  %10 = load i32, ptr %9, align 8
  tail call void @ExecSetExecProcNode(ptr noundef %0, ptr noundef nonnull @ExecParallelHashJoin) #6
  %11 = getelementptr inbounds nuw i8, ptr %1, i64 88
  %12 = load ptr, ptr %11, align 8
  %13 = tail call ptr @shm_toc_allocate(ptr noundef %12, i64 noundef 248) #6
  %14 = load ptr, ptr %11, align 8
  %15 = sext i32 %10 to i64
  tail call void @shm_toc_insert(ptr noundef %14, i64 noundef %15, ptr noundef %13) #6
  %16 = getelementptr inbounds nuw i8, ptr %13, i64 48
  store i64 0, ptr %16, align 8
  %17 = getelementptr inbounds nuw i8, ptr %13, i64 24
  %18 = getelementptr inbounds nuw i8, ptr %13, i64 188
  tail call void @llvm.memset.p0.i64(ptr noundef nonnull align 8 dereferenceable(20) %13, i8 0, i64 20, i1 false)
  tail call void @llvm.memset.p0.i64(ptr noundef nonnull align 8 dereferenceable(16) %17, i8 0, i64 16, i1 false)
  store volatile i32 0, ptr %18, align 4
  %19 = getelementptr inbounds nuw i8, ptr %1, i64 20
  %20 = load i32, ptr %19, align 4
  %21 = add i32 %20, 1
  %22 = getelementptr inbounds nuw i8, ptr %13, i64 40
  store i32 %21, ptr %22, align 8
  %23 = getelementptr inbounds nuw i8, ptr %13, i64 56
  store i64 0, ptr %23, align 8
  %24 = getelementptr inbounds nuw i8, ptr %13, i64 64
  tail call void @LWLockInitialize(ptr noundef nonnull %24, i32 noundef 68) #6
  %25 = getelementptr inbounds nuw i8, ptr %13, i64 80
  tail call void @BarrierInit(ptr noundef nonnull %25, i32 noundef 0) #6
  %26 = getelementptr inbounds nuw i8, ptr %13, i64 116
  tail call void @BarrierInit(ptr noundef nonnull %26, i32 noundef 0) #6
  %27 = getelementptr inbounds nuw i8, ptr %13, i64 152
  tail call void @BarrierInit(ptr noundef nonnull %27, i32 noundef 0) #6
  %28 = getelementptr inbounds nuw i8, ptr %13, i64 192
  %29 = load ptr, ptr %3, align 8
  tail call void @SharedFileSetInit(ptr noundef nonnull %28, ptr noundef %29) #6
  %30 = getelementptr inbounds nuw i8, ptr %0, i64 80
  %31 = load ptr, ptr %30, align 8
  %32 = getelementptr inbounds nuw i8, ptr %31, i64 248
  store ptr %13, ptr %32, align 8
  br label %33

33:                                               ; preds = %2, %6
  ret void
}